target datalayout = "e-m:e-p270:32:32-p271:32:32-p272:64:64-i64:64-i128:128-f80:128-n8:16:32:64-S128"
target triple = "x86_64-pc-linux-gnu"

%"class.llvm::IntrusiveRefCntPtr" = type { ptr }
%"class.clang::BackendConsumer" = type { %"class.clang::ASTConsumer.base", ptr, i32, ptr, ptr, ptr, ptr, %"class.std::unique_ptr", ptr, %"class.llvm::IntrusiveRefCntPtr", %"class.llvm::Timer", i32, i8, i8, %"class.std::unique_ptr.2", %"class.llvm::SmallVector", %"class.std::vector", ptr }
%"class.clang::ASTConsumer.base" = type <{ ptr, i8 }>
%"class.std::unique_ptr" = type { %"struct.std::__uniq_ptr_data" }
%"struct.std::__uniq_ptr_data" = type { %"class.std::__uniq_ptr_impl" }
%"class.std::__uniq_ptr_impl" = type { %"class.std::tuple" }
%"class.std::tuple" = type { %"struct.std::_Tuple_impl" }
%"struct.std::_Tuple_impl" = type { %"struct.std::_Head_base.1" }
%"struct.std::_Head_base.1" = type { ptr }
%"class.llvm::Timer" = type { %"class.llvm::TimeRecord", %"class.llvm::TimeRecord", %"class.std::__cxx11::basic_string", %"class.std::__cxx11::basic_string", i8, i8, ptr, ptr, ptr }
%"class.llvm::TimeRecord" = type { double, double, double, i64, i64 }
%"class.std::__cxx11::basic_string" = type { %"struct.std::__cxx11::basic_string<char>::_Alloc_hider", i64, %union.anon }
%"struct.std::__cxx11::basic_string<char>::_Alloc_hider" = type { ptr }
%union.anon = type { i64, [8 x i8] }
%"class.std::unique_ptr.2" = type { %"struct.std::__uniq_ptr_data.3" }
%"struct.std::__uniq_ptr_data.3" = type { %"class.std::__uniq_ptr_impl.4" }
%"class.std::__uniq_ptr_impl.4" = type { %"class.std::tuple.5" }
%"class.std::tuple.5" = type { %"struct.std::_Tuple_impl.6" }
%"struct.std::_Tuple_impl.6" = type { %"struct.std::_Head_base.9" }
%"struct.std::_Head_base.9" = type { ptr }
%"class.llvm::SmallVector" = type { %"class.llvm::SmallVectorImpl", %"struct.llvm::SmallVectorStorage" }
%"class.llvm::SmallVectorImpl" = type { %"class.llvm::SmallVectorTemplateBase" }
%"class.llvm::SmallVectorTemplateBase" = type { %"class.llvm::SmallVectorTemplateCommon" }
%"class.llvm::SmallVectorTemplateCommon" = type { %"class.llvm::SmallVectorBase" }
%"class.llvm::SmallVectorBase" = type { ptr, i32, i32 }
%"struct.llvm::SmallVectorStorage" = type { [64 x i8] }
%"class.std::vector" = type { %"struct.std::_Vector_base" }
%"struct.std::_Vector_base" = type { %"struct.std::_Vector_base<std::pair<llvm::hash_code, clang::FullSourceLoc>, std::allocator<std::pair<llvm::hash_code, clang::FullSourceLoc>>>::_Vector_impl" }
%"struct.std::_Vector_base<std::pair<llvm::hash_code, clang::FullSourceLoc>, std::allocator<std::pair<llvm::hash_code, clang::FullSourceLoc>>>::_Vector_impl" = type { %"struct.std::_Vector_base<std::pair<llvm::hash_code, clang::FullSourceLoc>, std::allocator<std::pair<llvm::hash_code, clang::FullSourceLoc>>>::_Vector_impl_data" }
%"struct.std::_Vector_base<std::pair<llvm::hash_code, clang::FullSourceLoc>, std::allocator<std::pair<llvm::hash_code, clang::FullSourceLoc>>>::_Vector_impl_data" = type { ptr, ptr, ptr }
%"class.clang::DeclGroupRef" = type { ptr }

; Function Attrs: mustprogress nounwind uwtable
define dso_local void @_ZN5clang15BackendConsumer21HandleInterestingDeclENS_12DeclGroupRefE(ptr noundef nonnull align 8 dereferenceable(392) %0, ptr %1) unnamed_addr #0 align 2 {
  %3 = alloca %"class.clang::DeclGroupRef", align 8
  %4 = alloca ptr, align 8
  %5 = alloca %"class.clang::DeclGroupRef", align 8
  %6 = getelementptr inbounds nuw %"class.clang::DeclGroupRef", ptr %3, i32 0, i32 0
  store ptr %1, ptr %6, align 8
  store ptr %0, ptr %4, align 8
  %7 = load ptr, ptr %4, align 8
  %8 = getelementptr inbounds nuw %"class.clang::BackendConsumer", ptr %7, i32 0, i32 12
  %9 = load i8, ptr %8, align 4
  %10 = trunc i8 %9 to i1
  br i1 %10, label %18, label %11

11:                                               ; preds = %2
  call void @llvm.memcpy.p0.p0.i64(ptr align 8 %5, ptr align 8 %3, i64 8, i1 false)
  %12 = getelementptr inbounds nuw %"class.clang::DeclGroupRef", ptr %5, i32 0, i32 0
  %13 = load ptr, ptr %12, align 8
  %14 = load ptr, ptr %7, align 8
  %15 = getelementptr inbounds ptr, ptr %14, i64 3
  %16 = load ptr, ptr %15, align 8
  %17 = call noundef zeroext i1 %16(ptr noundef nonnull align 8 dereferenceable(392) %7, ptr %13)
  br label %18

18:                                               ; preds = %11, %2
  ret void
}