; Function Attrs: mustprogress nounwind uwtable
define dso_local void @_ZN5clang15BackendConsumer21HandleInterestingDeclENS_12DeclGroupRefE(ptr noundef nonnull align 8 dereferenceable(392) %0, ptr %1) unnamed_addr #0 align 2 {
  %3 = getelementptr inbounds nuw i8, ptr %0, i64 268
  %4 = load i8, ptr %3, align 4
  %5 = trunc i8 %4 to i1
  br i1 %5, label %11, label %6

6:                                                ; preds = %2
  %7 = load ptr, ptr %0, align 8
  %8 = getelementptr inbounds i8, ptr %7, i64 24
  %9 = load ptr, ptr %8, align 8
  %10 = tail call noundef zeroext i1 %9(ptr noundef nonnull align 8 dereferenceable(392) %0, ptr %1) #23
  br label %11

11:                                               ; preds = %6, %2
  ret void
}